; ModuleID = 'source-C-CXX/10/1027.c'
source_filename = "source-C-CXX/10/1027.c"
target datalayout = "e-m:e-p270:32:32-p271:32:32-p272:64:64-i64:64-f80:128-n8:16:32:64-S128"
target triple = "x86_64-pc-linux-gnu"

@.str = private unnamed_addr constant [9 x i8] c"%d %d %d\00", align 1
@__const.main.m = private unnamed_addr constant [11 x i32] [i32 31, i32 0, i32 31, i32 30, i32 31, i32 30, i32 31, i32 31, i32 30, i32 31, i32 30], align 16
@.str.1 = private unnamed_addr constant [4 x i8] c"%d\0A\00", align 1

; Function Attrs: nofree nounwind sspstrong uwtable
define dso_local i32 @main() local_unnamed_addr #0 {
  %1 = alloca i32, align 4
  %2 = alloca i32, align 4
  %3 = alloca i32, align 4
  %4 = alloca [11 x i32], align 16
  %5 = bitcast i32* %1 to i8*
  call void @llvm.lifetime.start.p0i8(i64 4, i8* nonnull %5) #5
  %6 = bitcast i32* %2 to i8*
  call void @llvm.lifetime.start.p0i8(i64 4, i8* nonnull %6) #5
  %7 = bitcast i32* %3 to i8*
  call void @llvm.lifetime.start.p0i8(i64 4, i8* nonnull %7) #5
  %8 = call i32 (i8*, ...) @__isoc99_scanf(i8* getelementptr inbounds ([9 x i8], [9 x i8]* @.str, i64 0, i64 0), i32* nonnull %1, i32* nonnull %2, i32* nonnull %3)
  %9 = bitcast [11 x i32]* %4 to i8*
  call void @llvm.lifetime.start.p0i8(i64 44, i8* nonnull %9) #5
  call void @llvm.memcpy.p0i8.p0i8.i64(i8* noundef nonnull align 16 dereferenceable(44) %9, i8* noundef nonnull align 16 dereferenceable(44) bitcast ([11 x i32]* @__const.main.m to i8*), i64 44, i1 false)
  %10 = load i32, i32* %1, align 4, !tbaa !5
  %11 = and i32 %10, 3
  %12 = icmp ne i32 %11, 0
  %13 = srem i32 %10, 100
  %14 = icmp eq i32 %13, 0
  %15 = or i1 %12, %14
  br i1 %15, label %16, label %21

16:                                               ; preds = %0
  %17 = srem i32 %10, 400
  %18 = or i32 %13, %17
  %19 = icmp eq i32 %18, 0
  %20 = select i1 %19, i32 29, i32 28
  br label %21

21:                                               ; preds = %16, %0
  %22 = phi i32 [ 29, %0 ], [ %20, %16 ]
  %23 = getelementptr inbounds [11 x i32], [11 x i32]* %4, i64 0, i64 1
  store i32 %22, i32* %23, align 4, !tbaa !5
  %24 = load i32, i32* %2, align 4, !tbaa !5
  %25 = icmp eq i32 %24, 1
  br i1 %25, label %116, label %26

26:                                               ; preds = %21
  %27 = icmp sgt i32 %24, 1
  br i1 %27, label %28, label %126

28:                                               ; preds = %26
  %29 = add nsw i32 %24, -1
  %30 = zext i32 %29 to i64
  %31 = icmp ult i32 %29, 8
  br i1 %31, label %113, label %32

32:                                               ; preds = %28
  %33 = and i64 %30, 4294967288
  %34 = add nsw i64 %33, -8
  %35 = lshr exact i64 %34, 3
  %36 = add nuw nsw i64 %35, 1
  %37 = and i64 %36, 3
  %38 = icmp ult i64 %34, 24
  br i1 %38, label %84, label %39

39:                                               ; preds = %32
  %40 = and i64 %36, 4611686018427387900
  br label %41

41:                                               ; preds = %41, %39
  %42 = phi i64 [ 0, %39 ], [ %81, %41 ]
  %43 = phi <4 x i32> [ zeroinitializer, %39 ], [ %79, %41 ]
  %44 = phi <4 x i32> [ zeroinitializer, %39 ], [ %80, %41 ]
  %45 = phi i64 [ %40, %39 ], [ %82, %41 ]
  %46 = getelementptr inbounds [11 x i32], [11 x i32]* %4, i64 0, i64 %42
  %47 = bitcast i32* %46 to <4 x i32>*
  %48 = load <4 x i32>, <4 x i32>* %47, align 16, !tbaa !5
  %49 = getelementptr inbounds i32, i32* %46, i64 4
  %50 = bitcast i32* %49 to <4 x i32>*
  %51 = load <4 x i32>, <4 x i32>* %50, align 16, !tbaa !5
  %52 = add <4 x i32> %48, %43
  %53 = add <4 x i32> %51, %44
  %54 = or i64 %42, 8
  %55 = getelementptr inbounds [11 x i32], [11 x i32]* %4, i64 0, i64 %54
  %56 = bitcast i32* %55 to <4 x i32>*
  %57 = load <4 x i32>, <4 x i32>* %56, align 16, !tbaa !5
  %58 = getelementptr inbounds i32, i32* %55, i64 4
  %59 = bitcast i32* %58 to <4 x i32>*
  %60 = load <4 x i32>, <4 x i32>* %59, align 16, !tbaa !5
  %61 = add <4 x i32> %57, %52
  %62 = add <4 x i32> %60, %53
  %63 = or i64 %42, 16
  %64 = getelementptr inbounds [11 x i32], [11 x i32]* %4, i64 0, i64 %63
  %65 = bitcast i32* %64 to <4 x i32>*
  %66 = load <4 x i32>, <4 x i32>* %65, align 16, !tbaa !5
  %67 = getelementptr inbounds i32, i32* %64, i64 4
  %68 = bitcast i32* %67 to <4 x i32>*
  %69 = load <4 x i32>, <4 x i32>* %68, align 16, !tbaa !5
  %70 = add <4 x i32> %66, %61
  %71 = add <4 x i32> %69, %62
  %72 = or i64 %42, 24
  %73 = getelementptr inbounds [11 x i32], [11 x i32]* %4, i64 0, i64 %72
  %74 = bitcast i32* %73 to <4 x i32>*
  %75 = load <4 x i32>, <4 x i32>* %74, align 16, !tbaa !5
  %76 = getelementptr inbounds i32, i32* %73, i64 4
  %77 = bitcast i32* %76 to <4 x i32>*
  %78 = load <4 x i32>, <4 x i32>* %77, align 16, !tbaa !5
  %79 = add <4 x i32> %75, %70
  %80 = add <4 x i32> %78, %71
  %81 = add nuw i64 %42, 32
  %82 = add i64 %45, -4
  %83 = icmp eq i64 %82, 0
  br i1 %83, label %84, label %41, !llvm.loop !9

84:                                               ; preds = %41, %32
  %85 = phi <4 x i32> [ undef, %32 ], [ %79, %41 ]
  %86 = phi <4 x i32> [ undef, %32 ], [ %80, %41 ]
  %87 = phi i64 [ 0, %32 ], [ %81, %41 ]
  %88 = phi <4 x i32> [ zeroinitializer, %32 ], [ %79, %41 ]
  %89 = phi <4 x i32> [ zeroinitializer, %32 ], [ %80, %41 ]
  %90 = icmp eq i64 %37, 0
  br i1 %90, label %107, label %91

91:                                               ; preds = %84, %91
  %92 = phi i64 [ %104, %91 ], [ %87, %84 ]
  %93 = phi <4 x i32> [ %102, %91 ], [ %88, %84 ]
  %94 = phi <4 x i32> [ %103, %91 ], [ %89, %84 ]
  %95 = phi i64 [ %105, %91 ], [ %37, %84 ]
  %96 = getelementptr inbounds [11 x i32], [11 x i32]* %4, i64 0, i64 %92
  %97 = bitcast i32* %96 to <4 x i32>*
  %98 = load <4 x i32>, <4 x i32>* %97, align 16, !tbaa !5
  %99 = getelementptr inbounds i32, i32* %96, i64 4
  %100 = bitcast i32* %99 to <4 x i32>*
  %101 = load <4 x i32>, <4 x i32>* %100, align 16, !tbaa !5
  %102 = add <4 x i32> %98, %93
  %103 = add <4 x i32> %101, %94
  %104 = add nuw i64 %92, 8
  %105 = add i64 %95, -1
  %106 = icmp eq i64 %105, 0
  br i1 %106, label %107, label %91, !llvm.loop !12

107:                                              ; preds = %91, %84
  %108 = phi <4 x i32> [ %85, %84 ], [ %102, %91 ]
  %109 = phi <4 x i32> [ %86, %84 ], [ %103, %91 ]
  %110 = add <4 x i32> %109, %108
  %111 = call i32 @llvm.vector.reduce.add.v4i32(<4 x i32> %110)
  %112 = icmp eq i64 %33, %30
  br i1 %112, label %126, label %113

113:                                              ; preds = %28, %107
  %114 = phi i64 [ 0, %28 ], [ %33, %107 ]
  %115 = phi i32 [ 0, %28 ], [ %111, %107 ]
  br label %118

116:                                              ; preds = %21
  %117 = load i32, i32* %3, align 4, !tbaa !5
  br label %130

118:                                              ; preds = %113, %118
  %119 = phi i64 [ %124, %118 ], [ %114, %113 ]
  %120 = phi i32 [ %123, %118 ], [ %115, %113 ]
  %121 = getelementptr inbounds [11 x i32], [11 x i32]* %4, i64 0, i64 %119
  %122 = load i32, i32* %121, align 4, !tbaa !5
  %123 = add nsw i32 %122, %120
  %124 = add nuw nsw i64 %119, 1
  %125 = icmp eq i64 %124, %30
  br i1 %125, label %126, label %118, !llvm.loop !14

126:                                              ; preds = %118, %107, %26
  %127 = phi i32 [ 0, %26 ], [ %111, %107 ], [ %123, %118 ]
  %128 = load i32, i32* %3, align 4, !tbaa !5
  %129 = add nsw i32 %128, %127
  br label %130

130:                                              ; preds = %126, %116
  %131 = phi i32 [ %117, %116 ], [ %129, %126 ]
  %132 = call i32 (i8*, ...) @printf(i8* nonnull dereferenceable(1) getelementptr inbounds ([4 x i8], [4 x i8]* @.str.1, i64 0, i64 0), i32 %131)
  call void @llvm.lifetime.end.p0i8(i64 44, i8* nonnull %9) #5
  call void @llvm.lifetime.end.p0i8(i64 4, i8* nonnull %7) #5
  call void @llvm.lifetime.end.p0i8(i64 4, i8* nonnull %6) #5
  call void @llvm.lifetime.end.p0i8(i64 4, i8* nonnull %5) #5
  ret i32 0
}

; Function Attrs: argmemonly mustprogress nofree nosync nounwind willreturn
declare void @llvm.lifetime.start.p0i8(i64 immarg, i8* nocapture) #1

; Function Attrs: nofree nounwind
declare noundef i32 @__isoc99_scanf(i8* nocapture noundef readonly, ...) local_unnamed_addr #2

; Function Attrs: argmemonly mustprogress nofree nounwind willreturn
declare void @llvm.memcpy.p0i8.p0i8.i64(i8* noalias nocapture writeonly, i8* noalias nocapture readonly, i64, i1 immarg) #3

; Function Attrs: nofree nounwind
declare noundef i32 @printf(i8* nocapture noundef readonly, ...) local_unnamed_addr #2

; Function Attrs: argmemonly mustprogress nofree nosync nounwind willreturn
declare void @llvm.lifetime.end.p0i8(i64 immarg, i8* nocapture) #1

; Function Attrs: nofree nosync nounwind readnone willreturn
declare i32 @llvm.vector.reduce.add.v4i32(<4 x i32>) #4


!llvm.module.flags = !{!0, !1, !2, !3}
!llvm.ident = !{!4}

!0 = !{i32 1, !"wchar_size", i32 4}
!1 = !{i32 7, !"PIC Level", i32 2}
!2 = !{i32 7, !"PIE Level", i32 2}
!3 = !{i32 7, !"uwtable", i32 1}
!4 = !{!"clang version 13.0.0"}
!5 = !{!6, !6, i64 0}
!6 = !{!"int", !7, i64 0}
!7 = !{!"omnipotent char", !8, i64 0}
!8 = !{!"Simple C/C++ TBAA"}
!9 = distinct !{!9, !10, !11}
!10 = !{!"llvm.loop.mustprogress"}
!11 = !{!"llvm.loop.isvectorized", i32 1}
!12 = distinct !{!12, !13}
!13 = !{!"llvm.loop.unroll.disable"}
!14 = distinct !{!14, !10, !15, !11}
!15 = !{!"llvm.loop.unroll.runtime.disable"}
